; ModuleID = '56/2465.cpp'
source_filename = "56/2465.cpp"
target datalayout = "e-m:e-p270:32:32-p271:32:32-p272:64:64-i64:64-f80:128-n8:16:32:64-S128"
target triple = "x86_64-pc-linux-gnu"

%"class.std::ios_base::Init" = type { i8 }
%"class.std::basic_istream" = type { i32 (...)**, i64, %"class.std::basic_ios" }
%"class.std::basic_ios" = type { %"class.std::ios_base", %"class.std::basic_ostream"*, i8, i8, %"class.std::basic_streambuf"*, %"class.std::ctype"*, %"class.std::num_put"*, %"class.std::num_get"* }
%"class.std::ios_base" = type { i32 (...)**, i64, i64, i32, i32, i32, %"struct.std::ios_base::_Callback_list"*, %"struct.std::ios_base::_Words", [8 x %"struct.std::ios_base::_Words"], i32, %"struct.std::ios_base::_Words"*, %"class.std::locale" }
%"struct.std::ios_base::_Callback_list" = type { %"struct.std::ios_base::_Callback_list"*, void (i32, %"class.std::ios_base"*, i32)*, i32, i32 }
%"struct.std::ios_base::_Words" = type { i8*, i64 }
%"class.std::locale" = type { %"class.std::locale::_Impl"* }
%"class.std::locale::_Impl" = type { i32, %"class.std::locale::facet"**, i64, %"class.std::locale::facet"**, i8** }
%"class.std::locale::facet" = type <{ i32 (...)**, i32, [4 x i8] }>
%"class.std::basic_ostream" = type { i32 (...)**, %"class.std::basic_ios" }
%"class.std::basic_streambuf" = type { i32 (...)**, i8*, i8*, i8*, i8*, i8*, i8*, %"class.std::locale" }
%"class.std::ctype" = type <{ %"class.std::locale::facet.base", [4 x i8], %struct.__locale_struct*, i8, [7 x i8], i32*, i32*, i16*, i8, [256 x i8], [256 x i8], i8, [6 x i8] }>
%"class.std::locale::facet.base" = type <{ i32 (...)**, i32 }>
%struct.__locale_struct = type { [13 x %struct.__locale_data*], i16*, i32*, i32*, [13 x i8*] }
%struct.__locale_data = type opaque
%"class.std::num_put" = type { %"class.std::locale::facet.base", [4 x i8] }
%"class.std::num_get" = type { %"class.std::locale::facet.base", [4 x i8] }

@_ZStL8__ioinit = internal global %"class.std::ios_base::Init" zeroinitializer, align 1
@__dso_handle = external hidden global i8
@_ZSt3cin = external dso_local global %"class.std::basic_istream", align 8
@_ZSt4cout = external dso_local global %"class.std::basic_ostream", align 8
@llvm.global_ctors = appending global [1 x { i32, void ()*, i8* }] [{ i32, void ()*, i8* } { i32 65535, void ()* @_GLOBAL__sub_I_2465.cpp, i8* null }]

; Function Attrs: noinline uwtable
define internal void @__cxx_global_var_init() #0 section ".text.startup" {
  call void @_ZNSt8ios_base4InitC1Ev(%"class.std::ios_base::Init"* @_ZStL8__ioinit)
  %1 = call i32 @__cxa_atexit(void (i8*)* bitcast (void (%"class.std::ios_base::Init"*)* @_ZNSt8ios_base4InitD1Ev to void (i8*)*), i8* getelementptr inbounds (%"class.std::ios_base::Init", %"class.std::ios_base::Init"* @_ZStL8__ioinit, i32 0, i32 0), i8* @__dso_handle) #3
  ret void
}

declare dso_local void @_ZNSt8ios_base4InitC1Ev(%"class.std::ios_base::Init"*) unnamed_addr #1

; Function Attrs: nounwind
declare dso_local void @_ZNSt8ios_base4InitD1Ev(%"class.std::ios_base::Init"*) unnamed_addr #2

; Function Attrs: nounwind
declare dso_local i32 @__cxa_atexit(void (i8*)*, i8*, i8*) #3

; Function Attrs: noinline norecurse uwtable
define dso_local i32 @main() #4 {
  %1 = alloca i32, align 4
  %2 = alloca i32, align 4
  %3 = alloca i32, align 4
  %4 = alloca i32, align 4
  %5 = alloca i32, align 4
  %6 = alloca i32, align 4
  %7 = alloca i32, align 4
  %8 = alloca i32, align 4
  store i32 0, i32* %1, align 4
  %9 = call dereferenceable(280) %"class.std::basic_istream"* @_ZNSirsERi(%"class.std::basic_istream"* @_ZSt3cin, i32* dereferenceable(4) %2)
  %10 = load i32, i32* %2, align 4
  %11 = srem i32 %10, 10
  store i32 %11, i32* %7, align 4
  %12 = load i32, i32* %2, align 4
  %13 = srem i32 %12, 100
  %14 = load i32, i32* %7, align 4
  %15 = sub nsw i32 %13, %14
  %16 = sdiv i32 %15, 10
  store i32 %16, i32* %6, align 4
  %17 = load i32, i32* %2, align 4
  %18 = srem i32 %17, 1000
  %19 = load i32, i32* %6, align 4
  %20 = mul nsw i32 %19, 10
  %21 = sub nsw i32 %18, %20
  %22 = load i32, i32* %7, align 4
  %23 = sub nsw i32 %21, %22
  %24 = sdiv i32 %23, 100
  store i32 %24, i32* %5, align 4
  %25 = load i32, i32* %2, align 4
  %26 = srem i32 %25, 10000
  %27 = load i32, i32* %5, align 4
  %28 = mul nsw i32 %27, 100
  %29 = sub nsw i32 %26, %28
  %30 = load i32, i32* %6, align 4
  %31 = mul nsw i32 %30, 10
  %32 = sub nsw i32 %29, %31
  %33 = load i32, i32* %7, align 4
  %34 = sub nsw i32 %32, %33
  %35 = sdiv i32 %34, 1000
  store i32 %35, i32* %4, align 4
  %36 = load i32, i32* %2, align 4
  %37 = load i32, i32* %2, align 4
  %38 = srem i32 %37, 10000
  %39 = sub nsw i32 %36, %38
  %40 = sdiv i32 %39, 10000
  store i32 %40, i32* %3, align 4
  %41 = load i32, i32* %2, align 4
  %42 = icmp sgt i32 %41, 10000
  br i1 %42, label %43, label %57

43:                                               ; preds = %0
  %44 = load i32, i32* %7, align 4
  %45 = mul nsw i32 %44, 10000
  %46 = load i32, i32* %6, align 4
  %47 = mul nsw i32 %46, 1000
  %48 = add nsw i32 %45, %47
  %49 = load i32, i32* %5, align 4
  %50 = mul nsw i32 %49, 100
  %51 = add nsw i32 %48, %50
  %52 = load i32, i32* %4, align 4
  %53 = mul nsw i32 %52, 10
  %54 = add nsw i32 %51, %53
  %55 = load i32, i32* %3, align 4
  %56 = add nsw i32 %54, %55
  store i32 %56, i32* %8, align 4
  br label %95

57:                                               ; preds = %0
  %58 = load i32, i32* %2, align 4
  %59 = icmp sgt i32 %58, 1000
  br i1 %59, label %60, label %71

60:                                               ; preds = %57
  %61 = load i32, i32* %7, align 4
  %62 = mul nsw i32 %61, 1000
  %63 = load i32, i32* %6, align 4
  %64 = mul nsw i32 %63, 100
  %65 = add nsw i32 %62, %64
  %66 = load i32, i32* %5, align 4
  %67 = mul nsw i32 %66, 10
  %68 = add nsw i32 %65, %67
  %69 = load i32, i32* %4, align 4
  %70 = add nsw i32 %68, %69
  store i32 %70, i32* %8, align 4
  br label %94

71:                                               ; preds = %57
  %72 = load i32, i32* %2, align 4
  %73 = icmp sgt i32 %72, 100
  br i1 %73, label %74, label %82

74:                                               ; preds = %71
  %75 = load i32, i32* %7, align 4
  %76 = mul nsw i32 %75, 100
  %77 = load i32, i32* %6, align 4
  %78 = mul nsw i32 %77, 10
  %79 = add nsw i32 %76, %78
  %80 = load i32, i32* %5, align 4
  %81 = add nsw i32 %79, %80
  store i32 %81, i32* %8, align 4
  br label %93

82:                                               ; preds = %71
  %83 = load i32, i32* %2, align 4
  %84 = icmp sgt i32 %83, 10
  br i1 %84, label %85, label %90

85:                                               ; preds = %82
  %86 = load i32, i32* %7, align 4
  %87 = mul nsw i32 %86, 10
  %88 = load i32, i32* %6, align 4
  %89 = add nsw i32 %87, %88
  store i32 %89, i32* %8, align 4
  br label %92

90:                                               ; preds = %82
  %91 = load i32, i32* %7, align 4
  store i32 %91, i32* %8, align 4
  br label %92

92:                                               ; preds = %90, %85
  br label %93

93:                                               ; preds = %92, %74
  br label %94

94:                                               ; preds = %93, %60
  br label %95

95:                                               ; preds = %94, %43
  %96 = load i32, i32* %8, align 4
  %97 = call dereferenceable(272) %"class.std::basic_ostream"* @_ZNSolsEi(%"class.std::basic_ostream"* @_ZSt4cout, i32 %96)
  %98 = call dereferenceable(272) %"class.std::basic_ostream"* @_ZNSolsEPFRSoS_E(%"class.std::basic_ostream"* %97, %"class.std::basic_ostream"* (%"class.std::basic_ostream"*)* @_ZSt4endlIcSt11char_traitsIcEERSt13basic_ostreamIT_T0_ES6_)
  ret i32 0
}

declare dso_local dereferenceable(280) %"class.std::basic_istream"* @_ZNSirsERi(%"class.std::basic_istream"*, i32* dereferenceable(4)) #1

declare dso_local dereferenceable(272) %"class.std::basic_ostream"* @_ZNSolsEi(%"class.std::basic_ostream"*, i32) #1

declare dso_local dereferenceable(272) %"class.std::basic_ostream"* @_ZNSolsEPFRSoS_E(%"class.std::basic_ostream"*, %"class.std::basic_ostream"* (%"class.std::basic_ostream"*)*) #1

declare dso_local dereferenceable(272) %"class.std::basic_ostream"* @_ZSt4endlIcSt11char_traitsIcEERSt13basic_ostreamIT_T0_ES6_(%"class.std::basic_ostream"* dereferenceable(272)) #1

; Function Attrs: noinline uwtable
define internal void @_GLOBAL__sub_I_2465.cpp() #0 section ".text.startup" {
  call void @__cxx_global_var_init()
  ret void
}


!llvm.module.flags = !{!0}
!llvm.ident = !{!1}

!0 = !{i32 1, !"wchar_size", i32 4}
!1 = !{!"clang version 10.0.0-4ubuntu1 "}
